target datalayout = "e-m:e-p270:32:32-p271:32:32-p272:64:64-i64:64-i128:128-f80:128-n8:16:32:64-S128"
target triple = "x86_64-pc-linux-gnu"

; Function Attrs: mustprogress nounwind uwtable
define void @_Z11SecHideDataPvmbb(ptr noundef %0, i64 noundef %1, i1 noundef zeroext %2, i1 noundef zeroext %3) #2 {
  %5 = alloca ptr, align 8
  %6 = alloca i64, align 8
  %7 = alloca i8, align 1
  %8 = alloca i8, align 1
  %9 = alloca i32, align 4
  %10 = alloca i64, align 8
  store ptr %0, ptr %5, align 8, !tbaa !27
  store i64 %1, ptr %6, align 8, !tbaa !12
  %11 = zext i1 %2 to i8
  store i8 %11, ptr %7, align 1, !tbaa !33
  %12 = zext i1 %3 to i8
  store i8 %12, ptr %8, align 1, !tbaa !33
  call void @llvm.lifetime.start.p0(i64 4, ptr %9) #13
  %13 = call i32 @getpid() #13
  store i32 %13, ptr %9, align 4, !tbaa !36
  call void @llvm.lifetime.start.p0(i64 8, ptr %10) #13
  store i64 0, ptr %10, align 8, !tbaa !12
  br label %14

14:                                               ; preds = %32, %4
  %15 = load i64, ptr %10, align 8, !tbaa !12
  %16 = load i64, ptr %6, align 8, !tbaa !12
  %17 = icmp ult i64 %15, %16
  br i1 %17, label %19, label %18

18:                                               ; preds = %14
  call void @llvm.lifetime.end.p0(i64 8, ptr %10) #13
  br label %35

19:                                               ; preds = %14
  %20 = load i32, ptr %9, align 4, !tbaa !36
  %21 = zext i32 %20 to i64
  %22 = load i64, ptr %10, align 8, !tbaa !12
  %23 = add i64 %21, %22
  %24 = add i64 %23, 75
  %25 = load ptr, ptr %5, align 8, !tbaa !27
  %26 = load i64, ptr %10, align 8, !tbaa !12
  %27 = getelementptr inbounds nuw i8, ptr %25, i64 %26
  %28 = load i8, ptr %27, align 1, !tbaa !30
  %29 = zext i8 %28 to i64
  %30 = xor i64 %29, %24
  %31 = trunc i64 %30 to i8
  store i8 %31, ptr %27, align 1, !tbaa !30
  br label %32

32:                                               ; preds = %19
  %33 = load i64, ptr %10, align 8, !tbaa !12
  %34 = add i64 %33, 1
  store i64 %34, ptr %10, align 8, !tbaa !12
  br label %14, !llvm.loop !38

35:                                               ; preds = %18
  call void @llvm.lifetime.end.p0(i64 4, ptr %9) #13
  ret void
}