; Function Attrs: mustprogress nounwind uwtable
define void @_Z11SecHideDataPvmbb(ptr noundef captures(none) %0, i64 noundef %1, i1 noundef zeroext %2, i1 noundef zeroext %3) local_unnamed_addr #2 {
  %5 = tail call i32 @getpid() #15
  %.not = icmp eq i64 %1, 0
  br i1 %.not, label %._crit_edge, label %.lr.ph

.lr.ph:                                           ; preds = %4
  %6 = zext i32 %5 to i64
  br label %7

._crit_edge:                                      ; preds = %7, %4
  ret void

7:                                                ; preds = %.lr.ph, %7
  %.06 = phi i64 [ 0, %.lr.ph ], [ %14, %7 ]
  %8 = add i64 %.06, %6
  %9 = getelementptr inbounds nuw i8, ptr %0, i64 %.06
  %10 = load i8, ptr %9, align 1, !tbaa !17
  %11 = trunc i64 %8 to i8
  %12 = add i8 %11, 75
  %13 = xor i8 %10, %12
  store i8 %13, ptr %9, align 1, !tbaa !17
  %14 = add nuw i64 %.06, 1
  %exitcond.not = icmp eq i64 %14, %1
  br i1 %exitcond.not, label %._crit_edge, label %7, !llvm.loop !22
}